target datalayout = "e-m:e-p270:32:32-p271:32:32-p272:64:64-i64:64-i128:128-f80:128-n8:16:32:64-S128"
target triple = "x86_64-pc-linux-gnu"

%"class.base::BasicStringPiece" = type { ptr, i64 }
%"class.net::uint128" = type { i64, i64 }

; Function Attrs: inlinehint mustprogress nounwind uwtable
define linkonce_odr noundef i64 @_ZN3net12Uint128Low64ERKNS_7uint128E(ptr noundef nonnull align 8 dereferenceable(16) %0) #1 comdat {
  %2 = alloca ptr, align 8
  store ptr %0, ptr %2, align 8, !tbaa !33
  %3 = load ptr, ptr %2, align 8, !tbaa !33
  %4 = getelementptr inbounds nuw %"class.net::uint128", ptr %3, i32 0, i32 0
  %5 = load i64, ptr %4, align 8, !tbaa !35
  ret i64 %5
}

; Function Attrs: inlinehint mustprogress nounwind uwtable
define linkonce_odr noundef i64 @_ZN3net13Uint128High64ERKNS_7uint128E(ptr noundef nonnull align 8 dereferenceable(16) %0) #1 comdat {
  %2 = alloca ptr, align 8
  store ptr %0, ptr %2, align 8, !tbaa !33
  %3 = load ptr, ptr %2, align 8, !tbaa !33
  %4 = getelementptr inbounds nuw %"class.net::uint128", ptr %3, i32 0, i32 1
  %5 = load i64, ptr %4, align 8, !tbaa !37
  ret i64 %5
}

; Function Attrs: inlinehint mustprogress nounwind uwtable
define linkonce_odr noundef nonnull align 8 dereferenceable(16) ptr @_ZN3net7uint128aNERKS0_(ptr noundef nonnull align 8 dereferenceable(16) %0, ptr noundef nonnull align 8 dereferenceable(16) %1) #1 comdat align 2 {
  %3 = alloca ptr, align 8
  %4 = alloca ptr, align 8
  store ptr %0, ptr %3, align 8, !tbaa !33
  store ptr %1, ptr %4, align 8, !tbaa !33
  %5 = load ptr, ptr %3, align 8
  %6 = load ptr, ptr %4, align 8, !tbaa !33
  %7 = getelementptr inbounds nuw %"class.net::uint128", ptr %6, i32 0, i32 1
  %8 = load i64, ptr %7, align 8, !tbaa !37
  %9 = getelementptr inbounds nuw %"class.net::uint128", ptr %5, i32 0, i32 1
  %10 = load i64, ptr %9, align 8, !tbaa !37
  %11 = and i64 %10, %8
  store i64 %11, ptr %9, align 8, !tbaa !37
  %12 = load ptr, ptr %4, align 8, !tbaa !33
  %13 = getelementptr inbounds nuw %"class.net::uint128", ptr %12, i32 0, i32 0
  %14 = load i64, ptr %13, align 8, !tbaa !35
  %15 = getelementptr inbounds nuw %"class.net::uint128", ptr %5, i32 0, i32 0
  %16 = load i64, ptr %15, align 8, !tbaa !35
  %17 = and i64 %16, %14
  store i64 %17, ptr %15, align 8, !tbaa !35
  ret ptr %5
}

; Function Attrs: inlinehint mustprogress uwtable
define linkonce_odr void @_ZN3netcoERKNS_7uint128E(ptr dead_on_unwind noalias writable sret(%"class.net::uint128") align 8 %0, ptr noundef nonnull align 8 dereferenceable(16) %1) #5 comdat {
  %3 = alloca ptr, align 8
  %4 = alloca ptr, align 8
  store ptr %0, ptr %3, align 8
  store ptr %1, ptr %4, align 8, !tbaa !33
  %5 = load ptr, ptr %4, align 8, !tbaa !33
  %6 = call noundef i64 @_ZN3net13Uint128High64ERKNS_7uint128E(ptr noundef nonnull align 8 dereferenceable(16) %5)
  %7 = xor i64 %6, -1
  %8 = load ptr, ptr %4, align 8, !tbaa !33
  %9 = call noundef i64 @_ZN3net12Uint128Low64ERKNS_7uint128E(ptr noundef nonnull align 8 dereferenceable(16) %8)
  %10 = xor i64 %9, -1
  call void @_ZN3net7uint128C2Emm(ptr noundef nonnull align 8 dereferenceable(16) %0, i64 noundef %7, i64 noundef %10)
  ret void
}

; Function Attrs: inlinehint mustprogress nounwind uwtable
define linkonce_odr noundef nonnull align 8 dereferenceable(16) ptr @_ZN3net7uint128lSEi(ptr noundef nonnull align 8 dereferenceable(16) %0, i32 noundef %1) #1 comdat align 2 {
  %3 = alloca ptr, align 8
  %4 = alloca i32, align 4
  store ptr %0, ptr %3, align 8, !tbaa !33
  store i32 %1, ptr %4, align 4, !tbaa !40
  %5 = load ptr, ptr %3, align 8
  %6 = load i32, ptr %4, align 4, !tbaa !40
  %7 = icmp slt i32 %6, 64
  br i1 %7, label %8, label %32

8:                                                ; preds = %2
  %9 = load i32, ptr %4, align 4, !tbaa !40
  %10 = icmp ne i32 %9, 0
  br i1 %10, label %11, label %31

11:                                               ; preds = %8
  %12 = getelementptr inbounds nuw %"class.net::uint128", ptr %5, i32 0, i32 1
  %13 = load i64, ptr %12, align 8, !tbaa !37
  %14 = load i32, ptr %4, align 4, !tbaa !40
  %15 = zext i32 %14 to i64
  %16 = shl i64 %13, %15
  %17 = getelementptr inbounds nuw %"class.net::uint128", ptr %5, i32 0, i32 0
  %18 = load i64, ptr %17, align 8, !tbaa !35
  %19 = load i32, ptr %4, align 4, !tbaa !40
  %20 = sub nsw i32 64, %19
  %21 = zext i32 %20 to i64
  %22 = lshr i64 %18, %21
  %23 = or i64 %16, %22
  %24 = getelementptr inbounds nuw %"class.net::uint128", ptr %5, i32 0, i32 1
  store i64 %23, ptr %24, align 8, !tbaa !37
  %25 = getelementptr inbounds nuw %"class.net::uint128", ptr %5, i32 0, i32 0
  %26 = load i64, ptr %25, align 8, !tbaa !35
  %27 = load i32, ptr %4, align 4, !tbaa !40
  %28 = zext i32 %27 to i64
  %29 = shl i64 %26, %28
  %30 = getelementptr inbounds nuw %"class.net::uint128", ptr %5, i32 0, i32 0
  store i64 %29, ptr %30, align 8, !tbaa !35
  br label %31

31:                                               ; preds = %11, %8
  br label %48

32:                                               ; preds = %2
  %33 = load i32, ptr %4, align 4, !tbaa !40
  %34 = icmp slt i32 %33, 128
  br i1 %34, label %35, label %44

35:                                               ; preds = %32
  %36 = getelementptr inbounds nuw %"class.net::uint128", ptr %5, i32 0, i32 0
  %37 = load i64, ptr %36, align 8, !tbaa !35
  %38 = load i32, ptr %4, align 4, !tbaa !40
  %39 = sub nsw i32 %38, 64
  %40 = zext i32 %39 to i64
  %41 = shl i64 %37, %40
  %42 = getelementptr inbounds nuw %"class.net::uint128", ptr %5, i32 0, i32 1
  store i64 %41, ptr %42, align 8, !tbaa !37
  %43 = getelementptr inbounds nuw %"class.net::uint128", ptr %5, i32 0, i32 0
  store i64 0, ptr %43, align 8, !tbaa !35
  br label %47

44:                                               ; preds = %32
  %45 = getelementptr inbounds nuw %"class.net::uint128", ptr %5, i32 0, i32 1
  store i64 0, ptr %45, align 8, !tbaa !37
  %46 = getelementptr inbounds nuw %"class.net::uint128", ptr %5, i32 0, i32 0
  store i64 0, ptr %46, align 8, !tbaa !35
  br label %47

47:                                               ; preds = %44, %35
  br label %48

48:                                               ; preds = %47, %31
  ret ptr %5
}

; Function Attrs: inlinehint mustprogress nounwind uwtable
define linkonce_odr void @_ZN3net7uint128C2Emm(ptr noundef nonnull align 8 dereferenceable(16) %0, i64 noundef %1, i64 noundef %2) unnamed_addr #1 comdat align 2 {
  %4 = alloca ptr, align 8
  %5 = alloca i64, align 8
  %6 = alloca i64, align 8
  store ptr %0, ptr %4, align 8, !tbaa !33
  store i64 %1, ptr %5, align 8, !tbaa !28
  store i64 %2, ptr %6, align 8, !tbaa !28
  %7 = load ptr, ptr %4, align 8
  %8 = getelementptr inbounds nuw %"class.net::uint128", ptr %7, i32 0, i32 0
  %9 = load i64, ptr %6, align 8, !tbaa !28
  store i64 %9, ptr %8, align 8, !tbaa !35
  %10 = getelementptr inbounds nuw %"class.net::uint128", ptr %7, i32 0, i32 1
  %11 = load i64, ptr %5, align 8, !tbaa !28
  store i64 %11, ptr %10, align 8, !tbaa !37
  ret void
}

; Function Attrs: mustprogress nounwind uwtable
define available_externally noundef i64 @_ZNK4base16BasicStringPieceINSt7__cxx1112basic_stringIcSt11char_traitsIcESaIcEEEE6lengthEv(ptr noundef nonnull align 8 dereferenceable(16) %0) #0 align 2 {
  %2 = alloca ptr, align 8
  store ptr %0, ptr %2, align 8, !tbaa !12
  %3 = load ptr, ptr %2, align 8
  %4 = getelementptr inbounds nuw %"class.base::BasicStringPiece", ptr %3, i32 0, i32 1
  %5 = load i64, ptr %4, align 8, !tbaa !14
  ret i64 %5
}

; Function Attrs: mustprogress nounwind uwtable
define available_externally noundef ptr @_ZNK4base16BasicStringPieceINSt7__cxx1112basic_stringIcSt11char_traitsIcESaIcEEEE4dataEv(ptr noundef nonnull align 8 dereferenceable(16) %0) #0 align 2 {
  %2 = alloca ptr, align 8
  store ptr %0, ptr %2, align 8, !tbaa !12
  %3 = load ptr, ptr %2, align 8
  %4 = getelementptr inbounds nuw %"class.base::BasicStringPiece", ptr %3, i32 0, i32 0
  %5 = load ptr, ptr %4, align 8, !tbaa !32
  ret ptr %5
}

; Function Attrs: mustprogress uwtable
define void @_ZNK3net13NullDecrypter11ComputeHashEN4base16BasicStringPieceINSt7__cxx1112basic_stringIcSt11char_traitsIcESaIcEEEEES9_(ptr dead_on_unwind noalias writable sret(%"class.net::uint128") align 8 %0, ptr noundef nonnull align 8 dereferenceable(8) %1, ptr %2, i64 %3, ptr %4, i64 %5) #2 align 2 {
  %7 = alloca ptr, align 8
  %8 = alloca %"class.base::BasicStringPiece", align 8
  %9 = alloca %"class.base::BasicStringPiece", align 8
  %10 = alloca ptr, align 8
  %11 = alloca %"class.net::uint128", align 8
  %12 = alloca %"class.net::uint128", align 8
  store ptr %0, ptr %7, align 8
  %13 = getelementptr inbounds nuw { ptr, i64 }, ptr %8, i32 0, i32 0
  store ptr %2, ptr %13, align 8
  %14 = getelementptr inbounds nuw { ptr, i64 }, ptr %8, i32 0, i32 1
  store i64 %3, ptr %14, align 8
  %15 = getelementptr inbounds nuw { ptr, i64 }, ptr %9, i32 0, i32 0
  store ptr %4, ptr %15, align 8
  %16 = getelementptr inbounds nuw { ptr, i64 }, ptr %9, i32 0, i32 1
  store i64 %5, ptr %16, align 8
  store ptr %1, ptr %10, align 8, !tbaa !3
  %17 = call noundef ptr @_ZNK4base16BasicStringPieceINSt7__cxx1112basic_stringIcSt11char_traitsIcESaIcEEEE4dataEv(ptr noundef nonnull align 8 dereferenceable(16) %8)
  %18 = call noundef i64 @_ZNK4base16BasicStringPieceINSt7__cxx1112basic_stringIcSt11char_traitsIcESaIcEEEE6lengthEv(ptr noundef nonnull align 8 dereferenceable(16) %8)
  %19 = trunc i64 %18 to i32
  %20 = call noundef ptr @_ZNK4base16BasicStringPieceINSt7__cxx1112basic_stringIcSt11char_traitsIcESaIcEEEE4dataEv(ptr noundef nonnull align 8 dereferenceable(16) %9)
  %21 = call noundef i64 @_ZNK4base16BasicStringPieceINSt7__cxx1112basic_stringIcSt11char_traitsIcESaIcEEEE6lengthEv(ptr noundef nonnull align 8 dereferenceable(16) %9)
  %22 = trunc i64 %21 to i32
  call void @_ZN3net9QuicUtils18FNV1a_128_Hash_TwoEPKciS2_i(ptr dead_on_unwind writable sret(%"class.net::uint128") align 8 %0, ptr noundef %17, i32 noundef %19, ptr noundef %20, i32 noundef %22)
  call void @llvm.lifetime.start.p0(i64 16, ptr %11) #10
  call void @_ZN3net7uint128C2Emm(ptr noundef nonnull align 8 dereferenceable(16) %11, i64 noundef 0, i64 noundef 4294967295)
  %23 = call noundef nonnull align 8 dereferenceable(16) ptr @_ZN3net7uint128lSEi(ptr noundef nonnull align 8 dereferenceable(16) %11, i32 noundef 96)
  call void @llvm.lifetime.start.p0(i64 16, ptr %12) #10
  call void @_ZN3netcoERKNS_7uint128E(ptr dead_on_unwind writable sret(%"class.net::uint128") align 8 %12, ptr noundef nonnull align 8 dereferenceable(16) %11)
  %24 = call noundef nonnull align 8 dereferenceable(16) ptr @_ZN3net7uint128aNERKS0_(ptr noundef nonnull align 8 dereferenceable(16) %0, ptr noundef nonnull align 8 dereferenceable(16) %12)
  call void @llvm.lifetime.end.p0(i64 16, ptr %12) #10
  call void @llvm.lifetime.end.p0(i64 16, ptr %11) #10
  ret void
}