; Function Attrs: mustprogress uwtable
define void @_ZNK3net13NullDecrypter11ComputeHashEN4base16BasicStringPieceINSt7__cxx1112basic_stringIcSt11char_traitsIcESaIcEEEEES9_(ptr dead_on_unwind noalias writable sret(%"class.net::uint128") align 8 %0, ptr noundef nonnull readnone align 8 captures(none) dereferenceable(8) %1, ptr %2, i64 %3, ptr %4, i64 %5) local_unnamed_addr #2 align 2 {
  %7 = trunc i64 %3 to i32
  %8 = trunc i64 %5 to i32
  tail call void @_ZN3net9QuicUtils18FNV1a_128_Hash_TwoEPKciS2_i(ptr dead_on_unwind writable sret(%"class.net::uint128") align 8 %0, ptr noundef %2, i32 noundef %7, ptr noundef %4, i32 noundef %8)
  %9 = getelementptr inbounds nuw i8, ptr %0, i64 8
  %10 = load i64, ptr %9, align 8, !tbaa !16
  %11 = and i64 %10, 4294967295
  store i64 %11, ptr %9, align 8, !tbaa !16
  ret void
}